Certificate:
    Data:
        Version: 3 (0x2)
        Serial Number: 5 (0x5)
        Signature Algorithm: sha1WithRSAEncryption
        Issuer: C=BA, ST=RS, L=Banja Luka, O=Elektrotehnicki fakultet, OU=CA_MarkoMarkovic, CN=CA/emailAddress=ca@ca.com
        Validity
            Not Before: Feb  1 12:48:25 2020 GMT
            Not After : Oct 28 12:48:25 2022 GMT
        Subject: C=BA, ST=RS, O=Elektrotehnicki fakultet, OU=CA_MarkoMarkovic, CN=aleksandra/emailAddress=aleksandra@ca.com
        Subject Public Key Info:
            Public Key Algorithm: rsaEncryption
                RSA Public-Key: (2048 bit)
                Modulus:
                    00:d3:49:40:29:34:8d:22:69:ae:74:22:2a:b7:81:
                    3c:a2:88:c0:ca:05:9c:23:e8:98:5d:3c:33:3e:e2:
                    50:44:9e:f0:01:d3:29:4c:24:ff:f9:41:d0:43:56:
                    23:ba:f5:e7:1a:fb:c4:c3:d3:cc:eb:84:16:5d:c2:
                    ea:47:4c:38:e4:a8:96:93:7e:57:ee:cc:47:40:bc:
                    a1:dc:a4:53:f2:10:e1:b5:64:70:26:f0:bc:9d:6e:
                    02:11:e9:bb:6f:69:a6:44:81:8a:04:18:9e:a4:be:
                    28:18:3f:1b:b7:96:60:9d:bd:78:30:f9:bb:b8:47:
                    ef:b6:61:9f:4f:6c:df:2a:7e:7f:f5:62:be:5c:d3:
                    11:61:04:da:d3:f2:2b:92:7c:a2:a0:74:a1:1a:6f:
                    fc:0e:66:3e:f6:f1:9a:0f:3b:a9:93:95:35:dc:62:
                    63:1c:a4:77:d4:f1:db:8e:b4:32:1d:6e:77:6a:7b:
                    42:93:e1:07:fd:5a:40:21:41:fe:9a:4c:21:02:6b:
                    66:f2:b8:7c:8b:12:da:eb:1f:49:97:d2:97:1a:26:
                    62:99:74:c9:39:a9:cc:1f:96:31:3c:51:e2:b2:f2:
                    47:27:e2:48:f3:c5:8f:80:72:2c:a4:c8:9d:0a:46:
                    40:20:eb:6f:e2:01:03:29:80:ae:50:f8:e8:e6:9c:
                    df:19
                Exponent: 65537 (0x10001)
        X509v3 extensions:
            X509v3 Basic Constraints: 
                CA:FALSE
            X509v3 Key Usage: 
                Digital Signature, Key Encipherment, Encipher Only, Decipher Only
            X509v3 Extended Key Usage: 
                TLS Web Client Authentication
            Netscape Comment: 
                OpenSSL Generated Certificate
            X509v3 Subject Key Identifier: 
                24:AA:64:E4:D4:A4:AA:AB:49:9C:4E:E8:1A:63:AA:57:DF:B2:75:E7
            X509v3 Authority Key Identifier: 
                keyid:16:6C:FF:23:09:3D:E4:BB:A0:A9:EE:83:F2:CB:FC:BF:6F:94:8A:55

            X509v3 CRL Distribution Points: 

                Full Name:
                  URI:http://192.168.21.89/rootcrl.pem

    Signature Algorithm: sha1WithRSAEncryption
         5d:75:0d:72:b5:c5:79:15:4a:1a:f1:0b:ef:89:64:68:a3:fa:
         9c:7d:c0:b0:39:fa:20:6c:8e:b6:63:04:76:be:3c:f1:12:72:
         1c:23:22:e5:0a:7b:07:85:e6:fa:41:c8:ad:bc:84:31:20:1e:
         61:f9:1a:0d:4f:7c:b1:a3:3b:c8:1e:a8:57:76:3b:3b:99:30:
         90:c7:43:c8:ee:c0:4d:3d:2e:18:69:f2:17:07:b3:c5:65:09:
         a0:64:ac:57:ea:f8:95:65:6f:55:7c:86:52:2e:1e:af:30:4b:
         75:9f:fc:b1:37:2a:46:91:5f:82:2d:53:45:fe:e5:4c:b7:a8:
         de:30:a5:01:c1:52:ba:b7:dd:2e:dd:ec:f6:2e:9d:67:3a:95:
         27:84:08:7d:10:c7:96:78:df:f4:49:5f:f5:a7:a6:c8:b0:f2:
         c4:02:8a:4a:f5:1e:d6:6d:cb:3d:ef:c8:ea:d3:81:fd:cc:ba:
         7c:9e:9d:79:f9:a5:30:62:d1:a1:f1:b6:4d:d9:b6:ed:f8:38:
         ee:62:5d:3a:58:ff:00:f5:69:93:22:e2:e3:7f:a2:96:42:a4:
         e4:50:f4:fd:d2:0f:32:a2:f8:26:31:f5:91:2e:ef:a3:0e:8b:
         ab:d3:55:a6:c2:05:0a:f2:23:48:73:de:c8:8b:c1:bd:16:34:
         04:ce:03:a4
-----BEGIN CERTIFICATE-----
MIIEczCCA1ugAwIBAgIBBTANBgkqhkiG9w0BAQUFADCBlDELMAkGA1UEBhMCQkEx
CzAJBgNVBAgTAlJTMRMwEQYDVQQHEwpCYW5qYSBMdWthMSEwHwYDVQQKExhFbGVr
dHJvdGVobmlja2kgZmFrdWx0ZXQxGTAXBgNVBAsUEENBX01hcmtvTWFya292aWMx
CzAJBgNVBAMTAkNBMRgwFgYJKoZIhvcNAQkBFgljYUBjYS5jb20wHhcNMjAwMjAx
MTI0ODI1WhcNMjIxMDI4MTI0ODI1WjCBjzELMAkGA1UEBhMCQkExCzAJBgNVBAgT
AlJTMSEwHwYDVQQKExhFbGVrdHJvdGVobmlja2kgZmFrdWx0ZXQxGTAXBgNVBAsU
EENBX01hcmtvTWFya292aWMxEzARBgNVBAMTCmFsZWtzYW5kcmExIDAeBgkqhkiG
9w0BCQEWEWFsZWtzYW5kcmFAY2EuY29tMIIBIjANBgkqhkiG9w0BAQEFAAOCAQ8A
MIIBCgKCAQEA00lAKTSNImmudCIqt4E8oojAygWcI+iYXTwzPuJQRJ7wAdMpTCT/
+UHQQ1YjuvXnGvvEw9PM64QWXcLqR0w45KiWk35X7sxHQLyh3KRT8hDhtWRwJvC8
nW4CEem7b2mmRIGKBBiepL4oGD8bt5Zgnb14MPm7uEfvtmGfT2zfKn5/9WK+XNMR
YQTa0/IrknyioHShGm/8DmY+9vGaDzupk5U13GJjHKR31PHbjrQyHW53antCk+EH
/VpAIUH+mkwhAmtm8rh8ixLa6x9Jl9KXGiZimXTJOanMH5YxPFHisvJHJ+JI88WP
gHIspMidCkZAIOtv4gEDKYCuUPjo5pzfGQIDAQABo4HSMIHPMAkGA1UdEwQCMAAw
DAYDVR0PBAUDAwehgDATBgNVHSUEDDAKBggrBgEFBQcDAjAsBglghkgBhvhCAQ0E
HxYdT3BlblNTTCBHZW5lcmF0ZWQgQ2VydGlmaWNhdGUwHQYDVR0OBBYEFCSqZOTU
pKqrSZxO6BpjqlffsnXnMB8GA1UdIwQYMBaAFBZs/yMJPeS7oKnug/LL/L9vlIpV
MDEGA1UdHwQqMCgwJqAkoCKGIGh0dHA6Ly8xOTIuMTY4LjIxLjg5L3Jvb3Rjcmwu
cGVtMA0GCSqGSIb3DQEBBQUAA4IBAQBddQ1ytcV5FUoa8QvviWRoo/qcfcCwOfog
bI62YwR2vjzxEnIcIyLlCnsHheb6QcitvIQxIB5h+RoNT3yxozvIHqhXdjs7mTCQ
x0PI7sBNPS4YafIXB7PFZQmgZKxX6viVZW9VfIZSLh6vMEt1n/yxNypGkV+CLVNF
/uVMt6jeMKUBwVK6t90u3ez2Lp1nOpUnhAh9EMeWeN/0SV/1p6bIsPLEAopK9R7W
bcs978jq04H9zLp8np15+aUwYtGh8bZN2bbt+DjuYl06WP8A9WmTIuLjf6KWQqTk
UPT90g8yovgmMfWRLu+jDour01WmwgUK8iNIc97Ii8G9FjQEzgOk
-----END CERTIFICATE-----
