Certificate:
    Data:
        Version: 3 (0x2)
        Serial Number: 2 (0x2)
        Signature Algorithm: sha1WithRSAEncryption
        Issuer: C=BA, ST=RS, L=Banja Luka, O=Elektrotehnicki fakultet, OU=CA_MarkoMarkovic, CN=CA/emailAddress=ca@ca.com
        Validity
            Not Before: Feb  1 12:45:14 2020 GMT
            Not After : Oct 28 12:45:14 2022 GMT
        Subject: C=BA, ST=RS, O=Elektrotehnicki fakultet, OU=CA_MarkoMarkovic, CN=dimitrije/emailAddress=dimitrije@ca.com
        Subject Public Key Info:
            Public Key Algorithm: rsaEncryption
                RSA Public-Key: (2048 bit)
                Modulus:
                    00:d5:cc:15:42:ac:9d:6f:d1:9f:ef:12:6e:36:d7:
                    54:08:ce:4a:9f:60:f2:e3:21:9c:08:a0:7c:96:37:
                    b3:98:43:8e:71:80:45:43:5b:1b:12:7d:76:81:c9:
                    00:13:86:0a:d0:3c:eb:c4:b0:2b:b8:66:80:e0:56:
                    56:be:ba:46:93:60:c8:34:60:4c:c3:d0:3b:f2:57:
                    6c:40:9a:d5:c2:18:c9:5a:71:6b:08:54:5d:fa:00:
                    36:ef:1f:98:77:8b:47:96:0a:1d:1e:a7:54:d3:bb:
                    04:44:75:ff:4c:f0:05:ec:7a:52:86:b6:38:63:98:
                    de:90:0d:b3:94:96:85:d3:70:90:9e:da:96:d6:ed:
                    a6:11:05:72:43:1a:fe:4a:d7:25:c3:23:dc:2a:c8:
                    5d:7c:14:67:2a:ef:85:20:bc:d6:d2:26:3b:ac:13:
                    07:77:ff:6c:14:88:5a:e7:36:db:f0:f5:3e:db:31:
                    7d:62:65:f0:0b:a1:6b:a4:01:1c:f6:17:e5:b2:b3:
                    f4:d7:a9:f1:d5:05:57:94:1a:7a:21:49:ed:8e:87:
                    ed:4f:2c:5c:1c:80:4d:3c:c0:51:fc:44:7f:2b:64:
                    fc:e5:f4:4d:d6:38:54:59:46:50:c4:6e:57:d4:73:
                    ed:6b:4c:5e:15:2e:0f:bd:dc:03:8b:16:59:5d:4c:
                    2e:ff
                Exponent: 65537 (0x10001)
        X509v3 extensions:
            X509v3 Basic Constraints: 
                CA:FALSE
            X509v3 Key Usage: 
                Digital Signature, Key Encipherment, Encipher Only, Decipher Only
            X509v3 Extended Key Usage: 
                TLS Web Client Authentication
            Netscape Comment: 
                OpenSSL Generated Certificate
            X509v3 Subject Key Identifier: 
                48:5C:97:28:60:AE:57:EF:56:AC:69:DC:50:DC:8D:C3:33:FA:B2:37
            X509v3 Authority Key Identifier: 
                keyid:16:6C:FF:23:09:3D:E4:BB:A0:A9:EE:83:F2:CB:FC:BF:6F:94:8A:55

            X509v3 CRL Distribution Points: 

                Full Name:
                  URI:http://192.168.21.89/rootcrl.pem

    Signature Algorithm: sha1WithRSAEncryption
         0c:60:09:99:f0:c8:2f:64:86:72:33:d7:84:61:31:d8:2e:ec:
         4a:8e:16:0f:c8:cf:0a:ad:13:6e:fd:0c:86:ff:96:0d:a5:cf:
         0b:f7:37:64:31:4c:87:eb:6a:6a:c8:c7:cd:42:3e:22:81:06:
         4f:37:5f:a7:18:26:5a:95:cb:d4:6a:88:fc:19:29:33:c8:a3:
         73:87:71:40:e7:dc:91:c0:30:8c:fe:53:83:8c:88:e4:7c:c2:
         b4:07:4f:79:9b:22:c8:99:60:0b:42:34:20:7e:c4:47:b9:bd:
         af:47:0c:95:6a:60:40:1e:68:f8:58:80:42:33:b9:4e:10:a8:
         32:87:8e:5c:a8:8e:20:e0:c3:f7:5b:94:de:52:73:96:ea:05:
         03:06:15:ce:16:c8:b3:f5:b4:01:72:25:25:4e:91:f0:37:f5:
         99:0b:38:7f:86:15:2a:40:25:07:ee:69:7f:e6:a7:00:45:6b:
         12:3f:cf:4a:6a:62:30:57:c2:7d:1f:26:e9:64:8f:68:51:d0:
         9a:d6:3a:5f:b5:5b:ec:ec:9b:24:3a:e6:5f:44:de:b4:e9:84:
         00:56:56:3e:3a:f9:43:4c:e0:35:ab:63:7e:17:c9:0c:a3:b1:
         28:1b:18:82:d7:6d:6a:cd:64:de:30:86:fb:b2:43:09:97:fb:
         67:29:bd:be
-----BEGIN CERTIFICATE-----
MIIEcTCCA1mgAwIBAgIBAjANBgkqhkiG9w0BAQUFADCBlDELMAkGA1UEBhMCQkEx
CzAJBgNVBAgTAlJTMRMwEQYDVQQHEwpCYW5qYSBMdWthMSEwHwYDVQQKExhFbGVr
dHJvdGVobmlja2kgZmFrdWx0ZXQxGTAXBgNVBAsUEENBX01hcmtvTWFya292aWMx
CzAJBgNVBAMTAkNBMRgwFgYJKoZIhvcNAQkBFgljYUBjYS5jb20wHhcNMjAwMjAx
MTI0NTE0WhcNMjIxMDI4MTI0NTE0WjCBjTELMAkGA1UEBhMCQkExCzAJBgNVBAgT
AlJTMSEwHwYDVQQKExhFbGVrdHJvdGVobmlja2kgZmFrdWx0ZXQxGTAXBgNVBAsU
EENBX01hcmtvTWFya292aWMxEjAQBgNVBAMTCWRpbWl0cmlqZTEfMB0GCSqGSIb3
DQEJARYQZGltaXRyaWplQGNhLmNvbTCCASIwDQYJKoZIhvcNAQEBBQADggEPADCC
AQoCggEBANXMFUKsnW/Rn+8SbjbXVAjOSp9g8uMhnAigfJY3s5hDjnGARUNbGxJ9
doHJABOGCtA868SwK7hmgOBWVr66RpNgyDRgTMPQO/JXbECa1cIYyVpxawhUXfoA
Nu8fmHeLR5YKHR6nVNO7BER1/0zwBex6Uoa2OGOY3pANs5SWhdNwkJ7altbtphEF
ckMa/krXJcMj3CrIXXwUZyrvhSC81tImO6wTB3f/bBSIWuc22/D1PtsxfWJl8Auh
a6QBHPYX5bKz9Nep8dUFV5QaeiFJ7Y6H7U8sXByATTzAUfxEfytk/OX0TdY4VFlG
UMRuV9Rz7WtMXhUuD73cA4sWWV1MLv8CAwEAAaOB0jCBzzAJBgNVHRMEAjAAMAwG
A1UdDwQFAwMHoYAwEwYDVR0lBAwwCgYIKwYBBQUHAwIwLAYJYIZIAYb4QgENBB8W
HU9wZW5TU0wgR2VuZXJhdGVkIENlcnRpZmljYXRlMB0GA1UdDgQWBBRIXJcoYK5X
71asadxQ3I3DM/qyNzAfBgNVHSMEGDAWgBQWbP8jCT3ku6Cp7oPyy/y/b5SKVTAx
BgNVHR8EKjAoMCagJKAihiBodHRwOi8vMTkyLjE2OC4yMS44OS9yb290Y3JsLnBl
bTANBgkqhkiG9w0BAQUFAAOCAQEADGAJmfDIL2SGcjPXhGEx2C7sSo4WD8jPCq0T
bv0Mhv+WDaXPC/c3ZDFMh+tqasjHzUI+IoEGTzdfpxgmWpXL1GqI/BkpM8ijc4dx
QOfckcAwjP5Tg4yI5HzCtAdPeZsiyJlgC0I0IH7ER7m9r0cMlWpgQB5o+FiAQjO5
ThCoMoeOXKiOIODD91uU3lJzluoFAwYVzhbIs/W0AXIlJU6R8Df1mQs4f4YVKkAl
B+5pf+anAEVrEj/PSmpiMFfCfR8m6WSPaFHQmtY6X7Vb7OybJDrmX0TetOmEAFZW
Pjr5Q0zgNatjfhfJDKOxKBsYgtdtas1k3jCG+7JDCZf7Zym9vg==
-----END CERTIFICATE-----
